; ModuleID = '25/17.cpp'
source_filename = "25/17.cpp"
target datalayout = "e-m:e-p270:32:32-p271:32:32-p272:64:64-i64:64-f80:128-n8:16:32:64-S128"
target triple = "x86_64-pc-linux-gnu"

%"class.std::ios_base::Init" = type { i8 }
%"class.std::basic_istream" = type { i32 (...)**, i64, %"class.std::basic_ios" }
%"class.std::basic_ios" = type { %"class.std::ios_base", %"class.std::basic_ostream"*, i8, i8, %"class.std::basic_streambuf"*, %"class.std::ctype"*, %"class.std::num_put"*, %"class.std::num_get"* }
%"class.std::ios_base" = type { i32 (...)**, i64, i64, i32, i32, i32, %"struct.std::ios_base::_Callback_list"*, %"struct.std::ios_base::_Words", [8 x %"struct.std::ios_base::_Words"], i32, %"struct.std::ios_base::_Words"*, %"class.std::locale" }
%"struct.std::ios_base::_Callback_list" = type { %"struct.std::ios_base::_Callback_list"*, void (i32, %"class.std::ios_base"*, i32)*, i32, i32 }
%"struct.std::ios_base::_Words" = type { i8*, i64 }
%"class.std::locale" = type { %"class.std::locale::_Impl"* }
%"class.std::locale::_Impl" = type { i32, %"class.std::locale::facet"**, i64, %"class.std::locale::facet"**, i8** }
%"class.std::locale::facet" = type <{ i32 (...)**, i32, [4 x i8] }>
%"class.std::basic_ostream" = type { i32 (...)**, %"class.std::basic_ios" }
%"class.std::basic_streambuf" = type { i32 (...)**, i8*, i8*, i8*, i8*, i8*, i8*, %"class.std::locale" }
%"class.std::ctype" = type <{ %"class.std::locale::facet.base", [4 x i8], %struct.__locale_struct*, i8, [7 x i8], i32*, i32*, i16*, i8, [256 x i8], [256 x i8], i8, [6 x i8] }>
%"class.std::locale::facet.base" = type <{ i32 (...)**, i32 }>
%struct.__locale_struct = type { [13 x %struct.__locale_data*], i16*, i32*, i32*, [13 x i8*] }
%struct.__locale_data = type opaque
%"class.std::num_put" = type { %"class.std::locale::facet.base", [4 x i8] }
%"class.std::num_get" = type { %"class.std::locale::facet.base", [4 x i8] }

@_ZStL8__ioinit = internal global %"class.std::ios_base::Init" zeroinitializer, align 1
@__dso_handle = external hidden global i8
@_ZSt3cin = external dso_local global %"class.std::basic_istream", align 8
@_ZSt4cout = external dso_local global %"class.std::basic_ostream", align 8
@llvm.global_ctors = appending global [1 x { i32, void ()*, i8* }] [{ i32, void ()*, i8* } { i32 65535, void ()* @_GLOBAL__sub_I_17.cpp, i8* null }]

; Function Attrs: noinline uwtable
define internal void @__cxx_global_var_init() #0 section ".text.startup" {
  call void @_ZNSt8ios_base4InitC1Ev(%"class.std::ios_base::Init"* @_ZStL8__ioinit)
  %1 = call i32 @__cxa_atexit(void (i8*)* bitcast (void (%"class.std::ios_base::Init"*)* @_ZNSt8ios_base4InitD1Ev to void (i8*)*), i8* getelementptr inbounds (%"class.std::ios_base::Init", %"class.std::ios_base::Init"* @_ZStL8__ioinit, i32 0, i32 0), i8* @__dso_handle) #3
  ret void
}

declare dso_local void @_ZNSt8ios_base4InitC1Ev(%"class.std::ios_base::Init"*) unnamed_addr #1

; Function Attrs: nounwind
declare dso_local void @_ZNSt8ios_base4InitD1Ev(%"class.std::ios_base::Init"*) unnamed_addr #2

; Function Attrs: nounwind
declare dso_local i32 @__cxa_atexit(void (i8*)*, i8*, i8*) #3

; Function Attrs: noinline norecurse uwtable
define dso_local i32 @main() #4 {
  %1 = alloca i32, align 4
  %2 = alloca i32, align 4
  %3 = alloca [100 x i32], align 16
  %4 = alloca i32, align 4
  %5 = alloca i32, align 4
  %6 = alloca i32, align 4
  %7 = alloca i32, align 4
  %8 = alloca i32, align 4
  store i32 0, i32* %1, align 4
  %9 = bitcast [100 x i32]* %3 to i8*
  call void @llvm.memset.p0i8.i64(i8* align 16 %9, i8 0, i64 400, i1 false)
  store i32 0, i32* %4, align 4
  %10 = getelementptr inbounds [100 x i32], [100 x i32]* %3, i64 0, i64 0
  store i32 1, i32* %10, align 16
  %11 = call dereferenceable(280) %"class.std::basic_istream"* @_ZNSirsERi(%"class.std::basic_istream"* @_ZSt3cin, i32* dereferenceable(4) %2)
  store i32 0, i32* %5, align 4
  br label %12

12:                                               ; preds = %77, %0
  %13 = load i32, i32* %5, align 4
  %14 = load i32, i32* %2, align 4
  %15 = icmp slt i32 %13, %14
  br i1 %15, label %16, label %80

16:                                               ; preds = %12
  store i32 0, i32* %6, align 4
  br label %17

17:                                               ; preds = %27, %16
  %18 = load i32, i32* %6, align 4
  %19 = load i32, i32* %4, align 4
  %20 = icmp sle i32 %18, %19
  br i1 %20, label %21, label %30

21:                                               ; preds = %17
  %22 = load i32, i32* %6, align 4
  %23 = sext i32 %22 to i64
  %24 = getelementptr inbounds [100 x i32], [100 x i32]* %3, i64 0, i64 %23
  %25 = load i32, i32* %24, align 4
  %26 = mul nsw i32 %25, 2
  store i32 %26, i32* %24, align 4
  br label %27

27:                                               ; preds = %21
  %28 = load i32, i32* %6, align 4
  %29 = add nsw i32 %28, 1
  store i32 %29, i32* %6, align 4
  br label %17

30:                                               ; preds = %17
  store i32 0, i32* %7, align 4
  br label %31

31:                                               ; preds = %63, %30
  %32 = load i32, i32* %7, align 4
  %33 = load i32, i32* %4, align 4
  %34 = icmp sle i32 %32, %33
  br i1 %34, label %35, label %66

35:                                               ; preds = %31
  %36 = load i32, i32* %7, align 4
  %37 = sext i32 %36 to i64
  %38 = getelementptr inbounds [100 x i32], [100 x i32]* %3, i64 0, i64 %37
  %39 = load i32, i32* %38, align 4
  %40 = sdiv i32 %39, 10
  %41 = icmp ne i32 %40, 0
  br i1 %41, label %42, label %62

42:                                               ; preds = %35
  %43 = load i32, i32* %7, align 4
  %44 = sext i32 %43 to i64
  %45 = getelementptr inbounds [100 x i32], [100 x i32]* %3, i64 0, i64 %44
  %46 = load i32, i32* %45, align 4
  %47 = sdiv i32 %46, 10
  %48 = load i32, i32* %7, align 4
  %49 = add nsw i32 %48, 1
  %50 = sext i32 %49 to i64
  %51 = getelementptr inbounds [100 x i32], [100 x i32]* %3, i64 0, i64 %50
  %52 = load i32, i32* %51, align 4
  %53 = add nsw i32 %52, %47
  store i32 %53, i32* %51, align 4
  %54 = load i32, i32* %7, align 4
  %55 = sext i32 %54 to i64
  %56 = getelementptr inbounds [100 x i32], [100 x i32]* %3, i64 0, i64 %55
  %57 = load i32, i32* %56, align 4
  %58 = srem i32 %57, 10
  %59 = load i32, i32* %7, align 4
  %60 = sext i32 %59 to i64
  %61 = getelementptr inbounds [100 x i32], [100 x i32]* %3, i64 0, i64 %60
  store i32 %58, i32* %61, align 4
  br label %62

62:                                               ; preds = %42, %35
  br label %63

63:                                               ; preds = %62
  %64 = load i32, i32* %7, align 4
  %65 = add nsw i32 %64, 1
  store i32 %65, i32* %7, align 4
  br label %31

66:                                               ; preds = %31
  %67 = load i32, i32* %4, align 4
  %68 = add nsw i32 %67, 1
  %69 = sext i32 %68 to i64
  %70 = getelementptr inbounds [100 x i32], [100 x i32]* %3, i64 0, i64 %69
  %71 = load i32, i32* %70, align 4
  %72 = icmp ne i32 %71, 0
  br i1 %72, label %73, label %76

73:                                               ; preds = %66
  %74 = load i32, i32* %4, align 4
  %75 = add nsw i32 %74, 1
  store i32 %75, i32* %4, align 4
  br label %76

76:                                               ; preds = %73, %66
  br label %77

77:                                               ; preds = %76
  %78 = load i32, i32* %5, align 4
  %79 = add nsw i32 %78, 1
  store i32 %79, i32* %5, align 4
  br label %12

80:                                               ; preds = %12
  %81 = load i32, i32* %4, align 4
  store i32 %81, i32* %8, align 4
  br label %82

82:                                               ; preds = %91, %80
  %83 = load i32, i32* %8, align 4
  %84 = icmp sge i32 %83, 0
  br i1 %84, label %85, label %94

85:                                               ; preds = %82
  %86 = load i32, i32* %8, align 4
  %87 = sext i32 %86 to i64
  %88 = getelementptr inbounds [100 x i32], [100 x i32]* %3, i64 0, i64 %87
  %89 = load i32, i32* %88, align 4
  %90 = call dereferenceable(272) %"class.std::basic_ostream"* @_ZNSolsEi(%"class.std::basic_ostream"* @_ZSt4cout, i32 %89)
  br label %91

91:                                               ; preds = %85
  %92 = load i32, i32* %8, align 4
  %93 = add nsw i32 %92, -1
  store i32 %93, i32* %8, align 4
  br label %82

94:                                               ; preds = %82
  %95 = call dereferenceable(272) %"class.std::basic_ostream"* @_ZNSolsEPFRSoS_E(%"class.std::basic_ostream"* @_ZSt4cout, %"class.std::basic_ostream"* (%"class.std::basic_ostream"*)* @_ZSt4endlIcSt11char_traitsIcEERSt13basic_ostreamIT_T0_ES6_)
  ret i32 0
}

; Function Attrs: argmemonly nounwind willreturn
declare void @llvm.memset.p0i8.i64(i8* nocapture writeonly, i8, i64, i1 immarg) #5

declare dso_local dereferenceable(280) %"class.std::basic_istream"* @_ZNSirsERi(%"class.std::basic_istream"*, i32* dereferenceable(4)) #1

declare dso_local dereferenceable(272) %"class.std::basic_ostream"* @_ZNSolsEi(%"class.std::basic_ostream"*, i32) #1

declare dso_local dereferenceable(272) %"class.std::basic_ostream"* @_ZNSolsEPFRSoS_E(%"class.std::basic_ostream"*, %"class.std::basic_ostream"* (%"class.std::basic_ostream"*)*) #1

declare dso_local dereferenceable(272) %"class.std::basic_ostream"* @_ZSt4endlIcSt11char_traitsIcEERSt13basic_ostreamIT_T0_ES6_(%"class.std::basic_ostream"* dereferenceable(272)) #1

; Function Attrs: noinline uwtable
define internal void @_GLOBAL__sub_I_17.cpp() #0 section ".text.startup" {
  call void @__cxx_global_var_init()
  ret void
}


!llvm.module.flags = !{!0}
!llvm.ident = !{!1}

!0 = !{i32 1, !"wchar_size", i32 4}
!1 = !{!"clang version 10.0.0-4ubuntu1 "}
